target datalayout = "e-m:e-p270:32:32-p271:32:32-p272:64:64-i64:64-i128:128-f80:128-n8:16:32:64-S128"
target triple = "x86_64-pc-linux-gnu"

%struct.H5D_chk_idx_info_t = type { ptr, ptr, ptr, ptr }
%struct.H5O_storage_chunk_t = type { i32, i64, ptr, %union.anon.4 }
%union.anon.4 = type { %struct.H5O_storage_chunk_btree_t }
%struct.H5O_storage_chunk_btree_t = type { i64, ptr }
%struct.H5O_storage_chunk_bt2_t = type { i64, ptr }

@.str.2 = private unnamed_addr constant [103 x i8] c"generated/home/dtcxzyw/WorkSpace/Projects/compilers/llvm-opt-benchmark/bench/hdf5/hdf5/src/H5Dfarray.c\00", align 1
@H5E_DATASET_g = external global i64, align 8
@H5E_CANTOPENOBJ_g = external global i64, align 8
@H5E_CANTINIT_g = external global i64, align 8
@.str.20 = private unnamed_addr constant [23 x i8] c"can't open fixed array\00", align 1
@__func__.H5D__farray_idx_copy_setup = private unnamed_addr constant [27 x i8] c"H5D__farray_idx_copy_setup\00", align 1
@.str.38 = private unnamed_addr constant [37 x i8] c"unable to initialize chunked storage\00", align 1

; Function Attrs: nounwind uwtable
define internal i32 @H5D__farray_idx_copy_setup(ptr noundef %0, ptr noundef %1) #0 {
  %3 = alloca ptr, align 8
  %4 = alloca ptr, align 8
  %5 = alloca i32, align 4
  %6 = alloca i8, align 1
  %7 = alloca i64, align 8
  store ptr %0, ptr %3, align 8
  store ptr %1, ptr %4, align 8
  store i32 0, ptr %5, align 4
  store i8 0, ptr %6, align 1
  %8 = load ptr, ptr %3, align 8
  %9 = getelementptr inbounds %struct.H5D_chk_idx_info_t, ptr %8, i32 0, i32 3
  %10 = load ptr, ptr %9, align 8
  %11 = getelementptr inbounds %struct.H5O_storage_chunk_t, ptr %10, i32 0, i32 3
  %12 = getelementptr inbounds %struct.H5O_storage_chunk_bt2_t, ptr %11, i32 0, i32 1
  %13 = load ptr, ptr %12, align 8
  %14 = icmp ne ptr null, %13
  br i1 %14, label %35, label %15

15:                                               ; preds = %2
  %16 = load ptr, ptr %3, align 8
  %17 = call i32 @H5D__farray_idx_open(ptr noundef %16)
  %18 = icmp slt i32 %17, 0
  br i1 %18, label %19, label %34

19:                                               ; preds = %15
  br label %20

20:                                               ; preds = %19
  br label %21

21:                                               ; preds = %20
  br label %22

22:                                               ; preds = %21
  %23 = load i64, ptr @H5E_DATASET_g, align 8
  %24 = load i64, ptr @H5E_CANTOPENOBJ_g, align 8
  %25 = call i32 (ptr, ptr, i32, i64, i64, ptr, ...) @H5E_printf_stack(ptr noundef @.str.2, ptr noundef @__func__.H5D__farray_idx_copy_setup, i32 noundef 1464, i64 noundef %23, i64 noundef %24, ptr noundef @.str.20)
  br label %26

26:                                               ; preds = %22
  store i8 1, ptr %6, align 1
  %27 = load i8, ptr %6, align 1
  %28 = trunc i8 %27 to i1
  %29 = zext i1 %28 to i8
  store i8 %29, ptr %6, align 1
  br label %30

30:                                               ; preds = %26
  br label %31

31:                                               ; preds = %30
  store i32 -1, ptr %5, align 4
  br label %56

32:                                               ; No predecessors!
  br label %33

33:                                               ; preds = %32
  br label %34

34:                                               ; preds = %33, %15
  br label %35

35:                                               ; preds = %34, %2
  store i64 -1, ptr %7, align 8
  call void @H5AC_tag(i64 noundef 2, ptr noundef %7)
  %36 = load ptr, ptr %4, align 8
  %37 = call i32 @H5D__farray_idx_create(ptr noundef %36)
  %38 = icmp slt i32 %37, 0
  br i1 %38, label %39, label %54

39:                                               ; preds = %35
  br label %40

40:                                               ; preds = %39
  br label %41

41:                                               ; preds = %40
  br label %42

42:                                               ; preds = %41
  %43 = load i64, ptr @H5E_DATASET_g, align 8
  %44 = load i64, ptr @H5E_CANTINIT_g, align 8
  %45 = call i32 (ptr, ptr, i32, i64, i64, ptr, ...) @H5E_printf_stack(ptr noundef @.str.2, ptr noundef @__func__.H5D__farray_idx_copy_setup, i32 noundef 1472, i64 noundef %43, i64 noundef %44, ptr noundef @.str.38)
  br label %46

46:                                               ; preds = %42
  store i8 1, ptr %6, align 1
  %47 = load i8, ptr %6, align 1
  %48 = trunc i8 %47 to i1
  %49 = zext i1 %48 to i8
  store i8 %49, ptr %6, align 1
  br label %50

50:                                               ; preds = %46
  br label %51

51:                                               ; preds = %50
  store i32 -1, ptr %5, align 4
  br label %56

52:                                               ; No predecessors!
  br label %53

53:                                               ; preds = %52
  br label %54

54:                                               ; preds = %53, %35
  %55 = load i64, ptr %7, align 8
  call void @H5AC_tag(i64 noundef %55, ptr noundef null)
  br label %56

56:                                               ; preds = %54, %51, %31
  %57 = load i32, ptr %5, align 4
  ret i32 %57
}